(dp0
Vsg_bundle_data
p1
(dp2
Vtype
p3
VCustomNonProjectEntity07
p4
sVid
p5
I81
sVsg_system_name
p6
Vtk-config-default2
p7
sVsg_status_list
p8
Vhidden
p9
sVsg_deprecation_message
p10
NssVsg_version_data
p11
(dp12
Vtype
p13
VCustomNonProjectEntity08
p14
sVid
p15
I2986
sVcode
p16
Vv1.6.0
p17
sVsg_status_list
p18
Vprod
p19
sVdescription
p20
V[No wiki release notes found]
p21
sVtags
p22
(lp23
sVsg_detailed_release_notes
p24
(dp25
Vurl
p26
Vhttps://community.shotgridsoftware.com/t/shotgrid-integration-1-6-release-notes/17759
p27
sVname
p28
Vv1.6.0
p29
sVcontent_type
p30
NsVlink_type
p31
Vweb
p32
sg13
VAttachment
p33
sg15
I30582
ssVsg_documentation
p34
NsVsg_payload
p35
(dp36
g26
Vhttps://s3-proxy.shotgunstudio.com/d18c13bf0e59a9a82f18be518a1b6b508bcbd774/4d2863bea08a0d0bf41c715991952db6a5b0df0e/tk-config-default2_v1.6.0.zip?response-content-disposition=filename%3D%22tk-config-default2_v1.6.0.zip%22&x-amz-meta-user-id=42&x-amz-meta-user-type=ApiUser&X-Amz-Algorithm=AWS4-HMAC-SHA256&X-Amz-Credential=ASIAYJG6Z4JITSTWBONW%2F20231125%2Fus-west-2%2Fs3%2Faws4_request&X-Amz-Date=20231125T075802Z&X-Amz-SignedHeaders=host&X-Amz-Expires=900&X-Amz-Security-Token=IQoJb3JpZ2luX2VjEBgaCXVzLWVhc3QtMSJHMEUCIBieybFRezPq9FFISECCLV9irQJCH8xxvGRQu0tasm3JAiEA2mxa5CKMvi%2BKnbRcacFFGmVlrpZ5%2BOG4ZjJPq0DYJewqmAIIcBAAGgw1Njk1NTA0MzA4MDEiDLFNMQiwVUbVLDn0hyr1AftIA9G7KC6mLxc36BoPcVGvYdReVTQbUz2PuoZJBVciR5kCh5QQWbsXaLHTb5Dl%2Bl0UIlPxmG%2BLVY0joYeBoxRha%2BMkOaDwsLVEcXvg6gQbskSeW6EleRCZ9Dq46suNoHlDtKPyKzC4hTbLmVvu2HuVMBYug9Ps9d8ARVrPGGKRWXHsvzx4CzwC3B0GxRi%2BdpzH2HOauzBEJeuPyiRlbKLjiUsY6vSPcoMKknmDtocBaH01INtwtwrLX05paosqXhC0s8bbLIC9J38J3aKiq7p1h2YhhTtmH%2FiSJReMZE1bbAccZESMTiSD1gPY42A6PpUhZZhhMKnAhqsGOp0BAF9IELqIxSVFxbMdHn5zo5GQuw%2FxOBjmJ38MpEJ%2FoSDjg0pN43C94QrrMJ50gtU6HxLie6bdfnFhOwOLr0Z7fvyFT8Ok3RRWTfesLleoVJ8Q3ZFwPjzO3maVLW7hlNfns2Bo%2FyCNtXJCLcUpkJAZgl3lQcDleskD3ksnNl2zWl%2FbN3ZVtg84XiGyPyGTxxLvMPdls0DbQMfZtOZskg%3D%3D&X-Amz-Signature=bdeb7c9566ff9fa93205fa0fc4d33ecdb06d23c112f8cdd03291c9e279780d48
p37
sg28
Vtk-config-default2_v1.6.0.zip
p38
sg30
Vapplication/zip
p39
sg31
Vupload
p40
sg13
VAttachment
p41
sg15
I30576
sss.